; Function Attrs: mustprogress uwtable
define void @_ZN2cv5utils10BufferArea7releaseEv(ptr noundef nonnull align 8 captures(none) dereferenceable(41) %0) local_unnamed_addr #3 align 2 personality ptr @__gxx_personality_v0 {
  %2 = load ptr, ptr %0, align 8, !tbaa !16
  %3 = getelementptr inbounds nuw i8, ptr %0, i64 8
  %4 = load ptr, ptr %3, align 8, !tbaa !16
  %.not57 = icmp eq ptr %2, %4
  br i1 %.not57, label %_ZNSt6vectorIN2cv5utils10BufferArea5BlockESaIS3_EE5clearEv.exit, label %.lr.ph

._crit_edge:                                      ; preds = %_ZNK2cv5utils10BufferArea5Block7cleanupEv.exit
  %.pre10 = load ptr, ptr %0, align 8, !tbaa !17
  %.not.i.i = icmp eq ptr %12, %.pre10
  br i1 %.not.i.i, label %_ZNSt6vectorIN2cv5utils10BufferArea5BlockESaIS3_EE5clearEv.exit, label %5

5:                                                ; preds = %._crit_edge
  store ptr %.pre10, ptr %3, align 8, !tbaa !18
  br label %_ZNSt6vectorIN2cv5utils10BufferArea5BlockESaIS3_EE5clearEv.exit

_ZNSt6vectorIN2cv5utils10BufferArea5BlockESaIS3_EE5clearEv.exit: ; preds = %1, %._crit_edge, %5
  %6 = getelementptr inbounds nuw i8, ptr %0, i64 24
  %7 = load ptr, ptr %6, align 8, !tbaa !19
  %.not = icmp eq ptr %7, null
  br i1 %.not, label %15, label %14

.lr.ph:                                           ; preds = %1, %_ZNK2cv5utils10BufferArea5Block7cleanupEv.exit
  %8 = phi ptr [ %12, %_ZNK2cv5utils10BufferArea5Block7cleanupEv.exit ], [ %4, %1 ]
  %.sroa.02.08 = phi ptr [ %13, %_ZNK2cv5utils10BufferArea5Block7cleanupEv.exit ], [ %2, %1 ]
  %9 = getelementptr inbounds nuw i8, ptr %.sroa.02.08, i64 8
  %10 = load ptr, ptr %9, align 8, !tbaa !20
  %.not.i = icmp eq ptr %10, null
  br i1 %.not.i, label %_ZNK2cv5utils10BufferArea5Block7cleanupEv.exit, label %11

11:                                               ; preds = %.lr.ph
  tail call void @_ZN2cv8fastFreeEPv(ptr noundef nonnull %10)
  %.pre = load ptr, ptr %3, align 8, !tbaa !16
  br label %_ZNK2cv5utils10BufferArea5Block7cleanupEv.exit

_ZNK2cv5utils10BufferArea5Block7cleanupEv.exit:   ; preds = %.lr.ph, %11
  %12 = phi ptr [ %8, %.lr.ph ], [ %.pre, %11 ]
  %13 = getelementptr inbounds nuw i8, ptr %.sroa.02.08, i64 32
  %.not5 = icmp eq ptr %13, %12
  br i1 %.not5, label %._crit_edge, label %.lr.ph, !llvm.loop !24

14:                                               ; preds = %_ZNSt6vectorIN2cv5utils10BufferArea5BlockESaIS3_EE5clearEv.exit
  tail call void @_ZN2cv8fastFreeEPv(ptr noundef nonnull %7)
  store ptr null, ptr %6, align 8, !tbaa !19
  br label %15

15:                                               ; preds = %14, %_ZNSt6vectorIN2cv5utils10BufferArea5BlockESaIS3_EE5clearEv.exit
  ret void
}